target datalayout = "e-m:e-p270:32:32-p271:32:32-p272:64:64-i64:64-i128:128-f80:128-n8:16:32:64-S128"
target triple = "x86_64-pc-linux-gnu"

%"class.(anonymous namespace)::bv_bounds_simplifier" = type { %"class.ctx_simplify_tactic::simplifier", %"struct.bv::bv_bounds_base", %class.params_ref }
%"class.ctx_simplify_tactic::simplifier" = type { ptr, ptr }
%"struct.bv::bv_bounds_base" = type { ptr, ptr, %class.bv_util, %class.vector.26, %class.svector.27, %class.svector.29, %class.obj_map.31, i8, %class.ptr_vector.36, %class.ptr_vector.36 }
%class.bv_util = type { %class.bv_recognizers, ptr, ptr }
%class.bv_recognizers = type { i32 }
%class.vector.26 = type { ptr }
%class.svector.27 = type { %class.vector.28 }
%class.vector.28 = type { ptr }
%class.svector.29 = type { %class.vector.30 }
%class.vector.30 = type { ptr }
%class.obj_map.31 = type { %class.core_hashtable.32 }
%class.core_hashtable.32 = type <{ ptr, i32, i32, i32, [4 x i8] }>
%class.ptr_vector.36 = type { %class.vector.37 }
%class.vector.37 = type { ptr }
%class.params_ref = type { ptr }

; Function Attrs: mustprogress nounwind uwtable
define linkonce_odr hidden void @_ZN19ctx_simplify_tactic10simplifierD2Ev(ptr noundef nonnull align 8 dereferenceable(16) %0) unnamed_addr #6 comdat align 2 {
  %2 = alloca ptr, align 8
  store ptr %0, ptr %2, align 8, !tbaa !74
  ret void
}

; Function Attrs: inlinehint mustprogress nounwind uwtable
define internal void @_ZN12_GLOBAL__N_120bv_bounds_simplifierD2Ev(ptr noundef nonnull align 8 dereferenceable(136) %0) unnamed_addr #5 align 2 {
  %2 = alloca ptr, align 8
  store ptr %0, ptr %2, align 8, !tbaa !10
  %3 = load ptr, ptr %2, align 8
  store ptr getelementptr inbounds inrange(-16, 72) ({ [11 x ptr], [4 x ptr] }, ptr @_ZTVN12_GLOBAL__N_120bv_bounds_simplifierE, i32 0, i32 0, i32 2), ptr %3, align 8, !tbaa !12
  %4 = getelementptr inbounds i8, ptr %3, i64 16
  store ptr getelementptr inbounds inrange(-16, 16) ({ [11 x ptr], [4 x ptr] }, ptr @_ZTVN12_GLOBAL__N_120bv_bounds_simplifierE, i32 0, i32 1, i32 2), ptr %4, align 8, !tbaa !12
  %5 = getelementptr inbounds nuw %"class.(anonymous namespace)::bv_bounds_simplifier", ptr %3, i32 0, i32 2
  call void @_ZN10params_refD1Ev(ptr noundef nonnull align 8 dereferenceable(8) %5) #3
  %6 = getelementptr inbounds i8, ptr %3, i64 16
  call void @_ZN2bv14bv_bounds_baseD2Ev(ptr noundef nonnull align 8 dereferenceable(112) %6) #3
  call void @_ZN19ctx_simplify_tactic10simplifierD2Ev(ptr noundef nonnull align 8 dereferenceable(16) %3) #3
  ret void
}